target datalayout = "e-m:e-p270:32:32-p271:32:32-p272:64:64-i64:64-i128:128-f80:128-n8:16:32:64-S128"
target triple = "x86_64-pc-linux-gnu"

%"class.nanogui::Label" = type { %"class.nanogui::Widget.base", %"class.std::__cxx11::basic_string", %"class.std::__cxx11::basic_string", %"class.nanogui::Color" }
%"class.nanogui::Widget.base" = type <{ %"class.nanogui::Object.base", [4 x i8], ptr, %"class.nanogui::ref", %"class.nanogui::ref.0", %"struct.nanogui::Array", %"struct.nanogui::Array", %"struct.nanogui::Array", %"class.std::vector", i8, i8, i8, i8, [4 x i8], %"class.std::__cxx11::basic_string", i32, float, i32 }>
%"class.nanogui::Object.base" = type <{ ptr, %"struct.std::atomic" }>
%"struct.std::atomic" = type { %"struct.std::__atomic_base" }
%"struct.std::__atomic_base" = type { i32 }
%"class.nanogui::ref" = type { ptr }
%"class.nanogui::ref.0" = type { ptr }
%"struct.nanogui::Array" = type { [2 x i32] }
%"class.std::vector" = type { %"struct.std::_Vector_base" }
%"struct.std::_Vector_base" = type { %"struct.std::_Vector_base<nanogui::Widget *, std::allocator<nanogui::Widget *>>::_Vector_impl" }
%"struct.std::_Vector_base<nanogui::Widget *, std::allocator<nanogui::Widget *>>::_Vector_impl" = type { %"struct.std::_Vector_base<nanogui::Widget *, std::allocator<nanogui::Widget *>>::_Vector_impl_data" }
%"struct.std::_Vector_base<nanogui::Widget *, std::allocator<nanogui::Widget *>>::_Vector_impl_data" = type { ptr, ptr, ptr }
%"class.std::__cxx11::basic_string" = type { %"struct.std::__cxx11::basic_string<char>::_Alloc_hider", i64, %union.anon }
%"struct.std::__cxx11::basic_string<char>::_Alloc_hider" = type { ptr }
%union.anon = type { i64, [8 x i8] }
%"class.nanogui::Color" = type { %"struct.nanogui::Array.4" }
%"struct.nanogui::Array.4" = type { [4 x float] }
%"class.nanogui::Widget" = type <{ %"class.nanogui::Object.base", [4 x i8], ptr, %"class.nanogui::ref", %"class.nanogui::ref.0", %"struct.nanogui::Array", %"struct.nanogui::Array", %"struct.nanogui::Array", %"class.std::vector", i8, i8, i8, i8, [4 x i8], %"class.std::__cxx11::basic_string", i32, float, i32, [4 x i8] }>

@.str = private unnamed_addr constant [1 x i8] zeroinitializer, align 1

; Function Attrs: mustprogress nounwind uwtable
define linkonce_odr hidden void @_ZN7nanogui5ArrayIiLm2EEC2ILm2ETnNSt9enable_ifIXeqT_Li2EEiE4typeELi0EEEii(ptr noundef nonnull align 4 dereferenceable(8) %0, i32 noundef %1, i32 noundef %2) unnamed_addr #2 comdat align 2 {
  %4 = alloca ptr, align 8
  %5 = alloca i32, align 4
  %6 = alloca i32, align 4
  store ptr %0, ptr %4, align 8
  store i32 %1, ptr %5, align 4
  store i32 %2, ptr %6, align 4
  %7 = load ptr, ptr %4, align 8
  %8 = load i32, ptr %5, align 4
  %9 = getelementptr inbounds %"struct.nanogui::Array", ptr %7, i32 0, i32 0
  %10 = getelementptr inbounds [2 x i32], ptr %9, i64 0, i64 0
  store i32 %8, ptr %10, align 4
  %11 = load i32, ptr %6, align 4
  %12 = getelementptr inbounds %"struct.nanogui::Array", ptr %7, i32 0, i32 0
  %13 = getelementptr inbounds [2 x i32], ptr %12, i64 0, i64 1
  store i32 %11, ptr %13, align 4
  ret void
}

; Function Attrs: mustprogress nounwind uwtable
define linkonce_odr hidden noundef nonnull align 4 dereferenceable(4) ptr @_ZNK7nanogui5ArrayIiLm2EE1yILm2ETnNSt9enable_ifIXgeT_Li2EEiE4typeELi0EEERKiv(ptr noundef nonnull align 4 dereferenceable(8) %0) #2 comdat align 2 {
  %2 = alloca ptr, align 8
  store ptr %0, ptr %2, align 8
  %3 = load ptr, ptr %2, align 8
  %4 = getelementptr inbounds %"struct.nanogui::Array", ptr %3, i32 0, i32 0
  %5 = getelementptr inbounds [2 x i32], ptr %4, i64 0, i64 1
  ret ptr %5
}

; Function Attrs: mustprogress nounwind uwtable
define linkonce_odr hidden noundef nonnull align 4 dereferenceable(4) ptr @_ZNK7nanogui5ArrayIiLm2EE1xILm2ETnNSt9enable_ifIXgeT_Li1EEiE4typeELi0EEERKiv(ptr noundef nonnull align 4 dereferenceable(8) %0) #2 comdat align 2 {
  %2 = alloca ptr, align 8
  store ptr %0, ptr %2, align 8
  %3 = load ptr, ptr %2, align 8
  %4 = getelementptr inbounds %"struct.nanogui::Array", ptr %3, i32 0, i32 0
  %5 = getelementptr inbounds [2 x i32], ptr %4, i64 0, i64 0
  ret ptr %5
}

; Function Attrs: mustprogress nounwind uwtable
define linkonce_odr hidden void @_ZN7nanogui5ArrayIiLm2EEC2Ei(ptr noundef nonnull align 4 dereferenceable(8) %0, i32 noundef %1) unnamed_addr #2 comdat align 2 {
  %3 = alloca ptr, align 8
  %4 = alloca i32, align 4
  %5 = alloca i64, align 8
  store ptr %0, ptr %3, align 8
  store i32 %1, ptr %4, align 4
  %6 = load ptr, ptr %3, align 8
  store i64 0, ptr %5, align 8
  br label %7

7:                                                ; preds = %15, %2
  %8 = load i64, ptr %5, align 8
  %9 = icmp ult i64 %8, 2
  br i1 %9, label %10, label %18

10:                                               ; preds = %7
  %11 = load i32, ptr %4, align 4
  %12 = getelementptr inbounds %"struct.nanogui::Array", ptr %6, i32 0, i32 0
  %13 = load i64, ptr %5, align 8
  %14 = getelementptr inbounds [2 x i32], ptr %12, i64 0, i64 %13
  store i32 %11, ptr %14, align 4
  br label %15

15:                                               ; preds = %10
  %16 = load i64, ptr %5, align 8
  %17 = add i64 %16, 1
  store i64 %17, ptr %5, align 8
  br label %7, !llvm.loop !5

18:                                               ; preds = %7
  ret void
}

; Function Attrs: mustprogress nounwind uwtable
define linkonce_odr dso_local noundef zeroext i1 @_ZSteqIcSt11char_traitsIcESaIcEEbRKNSt7__cxx1112basic_stringIT_T0_T1_EEPKS5_(ptr noundef nonnull align 8 dereferenceable(32) %0, ptr noundef %1) #2 comdat {
  %3 = alloca ptr, align 8
  %4 = alloca ptr, align 8
  store ptr %0, ptr %3, align 8
  store ptr %1, ptr %4, align 8
  %5 = load ptr, ptr %3, align 8
  %6 = load ptr, ptr %4, align 8
  %7 = call noundef i32 @_ZNKSt7__cxx1112basic_stringIcSt11char_traitsIcESaIcEE7compareEPKc(ptr noundef nonnull align 8 dereferenceable(32) %5, ptr noundef %6) #8
  %8 = icmp eq i32 %7, 0
  ret i1 %8
}

; Function Attrs: mustprogress uwtable
define hidden i64 @_ZNK7nanogui5Label14preferred_sizeEP10NVGcontext(ptr noundef nonnull align 8 dereferenceable(224) %0, ptr noundef %1) unnamed_addr #0 align 2 {
  %3 = alloca %"struct.nanogui::Array", align 4
  %4 = alloca ptr, align 8
  %5 = alloca ptr, align 8
  %6 = alloca [4 x float], align 16
  store ptr %0, ptr %4, align 8
  store ptr %1, ptr %5, align 8
  %7 = load ptr, ptr %4, align 8
  %8 = getelementptr inbounds %"class.nanogui::Label", ptr %7, i32 0, i32 1
  %9 = call noundef zeroext i1 @_ZSteqIcSt11char_traitsIcESaIcEEbRKNSt7__cxx1112basic_stringIT_T0_T1_EEPKS5_(ptr noundef nonnull align 8 dereferenceable(32) %8, ptr noundef @.str)
  br i1 %9, label %10, label %11

10:                                               ; preds = %2
  call void @_ZN7nanogui5ArrayIiLm2EEC2Ei(ptr noundef nonnull align 4 dereferenceable(8) %3, i32 noundef 0)
  br label %58

11:                                               ; preds = %2
  %12 = load ptr, ptr %5, align 8
  %13 = getelementptr inbounds %"class.nanogui::Label", ptr %7, i32 0, i32 2
  %14 = call noundef ptr @_ZNKSt7__cxx1112basic_stringIcSt11char_traitsIcESaIcEE5c_strEv(ptr noundef nonnull align 8 dereferenceable(32) %13) #8
  call void @nvgFontFace(ptr noundef %12, ptr noundef %14)
  %15 = load ptr, ptr %5, align 8
  %16 = call noundef i32 @_ZNK7nanogui6Widget9font_sizeEv(ptr noundef nonnull align 8 dereferenceable(140) %7)
  %17 = sitofp i32 %16 to float
  call void @nvgFontSize(ptr noundef %15, float noundef %17)
  %18 = getelementptr inbounds %"class.nanogui::Widget", ptr %7, i32 0, i32 7
  %19 = call noundef nonnull align 4 dereferenceable(4) ptr @_ZNK7nanogui5ArrayIiLm2EE1xILm2ETnNSt9enable_ifIXgeT_Li1EEiE4typeELi0EEERKiv(ptr noundef nonnull align 4 dereferenceable(8) %18)
  %20 = load i32, ptr %19, align 4
  %21 = icmp sgt i32 %20, 0
  br i1 %21, label %22, label %49

22:                                               ; preds = %11
  %23 = load ptr, ptr %5, align 8
  call void @nvgTextAlign(ptr noundef %23, i32 noundef 9)
  %24 = load ptr, ptr %5, align 8
  %25 = getelementptr inbounds %"class.nanogui::Widget", ptr %7, i32 0, i32 5
  %26 = call noundef nonnull align 4 dereferenceable(4) ptr @_ZNK7nanogui5ArrayIiLm2EE1xILm2ETnNSt9enable_ifIXgeT_Li1EEiE4typeELi0EEERKiv(ptr noundef nonnull align 4 dereferenceable(8) %25)
  %27 = load i32, ptr %26, align 4
  %28 = sitofp i32 %27 to float
  %29 = getelementptr inbounds %"class.nanogui::Widget", ptr %7, i32 0, i32 5
  %30 = call noundef nonnull align 4 dereferenceable(4) ptr @_ZNK7nanogui5ArrayIiLm2EE1yILm2ETnNSt9enable_ifIXgeT_Li2EEiE4typeELi0EEERKiv(ptr noundef nonnull align 4 dereferenceable(8) %29)
  %31 = load i32, ptr %30, align 4
  %32 = sitofp i32 %31 to float
  %33 = getelementptr inbounds %"class.nanogui::Widget", ptr %7, i32 0, i32 7
  %34 = call noundef nonnull align 4 dereferenceable(4) ptr @_ZNK7nanogui5ArrayIiLm2EE1xILm2ETnNSt9enable_ifIXgeT_Li1EEiE4typeELi0EEERKiv(ptr noundef nonnull align 4 dereferenceable(8) %33)
  %35 = load i32, ptr %34, align 4
  %36 = sitofp i32 %35 to float
  %37 = getelementptr inbounds %"class.nanogui::Label", ptr %7, i32 0, i32 1
  %38 = call noundef ptr @_ZNKSt7__cxx1112basic_stringIcSt11char_traitsIcESaIcEE5c_strEv(ptr noundef nonnull align 8 dereferenceable(32) %37) #8
  %39 = getelementptr inbounds [4 x float], ptr %6, i64 0, i64 0
  call void @nvgTextBoxBounds(ptr noundef %24, float noundef %28, float noundef %32, float noundef %36, ptr noundef %38, ptr noundef null, ptr noundef %39)
  %40 = getelementptr inbounds %"class.nanogui::Widget", ptr %7, i32 0, i32 7
  %41 = call noundef nonnull align 4 dereferenceable(4) ptr @_ZNK7nanogui5ArrayIiLm2EE1xILm2ETnNSt9enable_ifIXgeT_Li1EEiE4typeELi0EEERKiv(ptr noundef nonnull align 4 dereferenceable(8) %40)
  %42 = load i32, ptr %41, align 4
  %43 = getelementptr inbounds [4 x float], ptr %6, i64 0, i64 3
  %44 = load float, ptr %43, align 4
  %45 = getelementptr inbounds [4 x float], ptr %6, i64 0, i64 1
  %46 = load float, ptr %45, align 4
  %47 = fsub float %44, %46
  %48 = fptosi float %47 to i32
  call void @_ZN7nanogui5ArrayIiLm2EEC2ILm2ETnNSt9enable_ifIXeqT_Li2EEiE4typeELi0EEEii(ptr noundef nonnull align 4 dereferenceable(8) %3, i32 noundef %42, i32 noundef %48)
  br label %58

49:                                               ; preds = %11
  %50 = load ptr, ptr %5, align 8
  call void @nvgTextAlign(ptr noundef %50, i32 noundef 17)
  %51 = load ptr, ptr %5, align 8
  %52 = getelementptr inbounds %"class.nanogui::Label", ptr %7, i32 0, i32 1
  %53 = call noundef ptr @_ZNKSt7__cxx1112basic_stringIcSt11char_traitsIcESaIcEE5c_strEv(ptr noundef nonnull align 8 dereferenceable(32) %52) #8
  %54 = call float @nvgTextBounds(ptr noundef %51, float noundef 0.000000e+00, float noundef 0.000000e+00, ptr noundef %53, ptr noundef null, ptr noundef null)
  %55 = fadd float %54, 2.000000e+00
  %56 = fptosi float %55 to i32
  %57 = call noundef i32 @_ZNK7nanogui6Widget9font_sizeEv(ptr noundef nonnull align 8 dereferenceable(140) %7)
  call void @_ZN7nanogui5ArrayIiLm2EEC2ILm2ETnNSt9enable_ifIXeqT_Li2EEiE4typeELi0EEEii(ptr noundef nonnull align 4 dereferenceable(8) %3, i32 noundef %56, i32 noundef %57)
  br label %58

58:                                               ; preds = %49, %22, %10
  %59 = getelementptr inbounds %"struct.nanogui::Array", ptr %3, i32 0, i32 0
  %60 = load i64, ptr %59, align 4
  ret i64 %60
}