; Function Attrs: mustprogress uwtable
define hidden i64 @_ZNK7nanogui5Label14preferred_sizeEP10NVGcontext(ptr noundef nonnull align 8 dereferenceable(224) %0, ptr noundef %1) unnamed_addr #4 align 2 {
  %3 = alloca [4 x float], align 16
  %4 = getelementptr inbounds i8, ptr %0, i64 144
  %5 = tail call noundef i32 @_ZNKSt7__cxx1112basic_stringIcSt11char_traitsIcESaIcEE7compareEPKc(ptr noundef nonnull align 8 dereferenceable(32) %4, ptr noundef nonnull @.str) #10
  %6 = icmp eq i32 %5, 0
  br i1 %6, label %_ZN7nanogui5ArrayIiLm2EEC2Ei.exit, label %7

7:                                                ; preds = %2
  %8 = getelementptr inbounds i8, ptr %0, i64 176
  %9 = tail call noundef ptr @_ZNKSt7__cxx1112basic_stringIcSt11char_traitsIcESaIcEE5c_strEv(ptr noundef nonnull align 8 dereferenceable(32) %8) #10
  tail call void @nvgFontFace(ptr noundef %1, ptr noundef %9)
  %10 = tail call noundef i32 @_ZNK7nanogui6Widget9font_sizeEv(ptr noundef nonnull align 8 dereferenceable(140) %0)
  %11 = sitofp i32 %10 to float
  tail call void @nvgFontSize(ptr noundef %1, float noundef %11)
  %12 = getelementptr inbounds i8, ptr %0, i64 56
  %13 = load i32, ptr %12, align 8
  %14 = icmp sgt i32 %13, 0
  br i1 %14, label %15, label %32

15:                                               ; preds = %7
  tail call void @nvgTextAlign(ptr noundef %1, i32 noundef 9)
  %16 = getelementptr inbounds i8, ptr %0, i64 40
  %17 = load i32, ptr %16, align 8
  %18 = sitofp i32 %17 to float
  %19 = getelementptr inbounds i8, ptr %0, i64 44
  %20 = load i32, ptr %19, align 4
  %21 = sitofp i32 %20 to float
  %22 = load i32, ptr %12, align 8
  %23 = sitofp i32 %22 to float
  %24 = tail call noundef ptr @_ZNKSt7__cxx1112basic_stringIcSt11char_traitsIcESaIcEE5c_strEv(ptr noundef nonnull align 8 dereferenceable(32) %4) #10
  call void @nvgTextBoxBounds(ptr noundef %1, float noundef %18, float noundef %21, float noundef %23, ptr noundef %24, ptr noundef null, ptr noundef nonnull %3)
  %25 = load i32, ptr %12, align 8
  %26 = getelementptr inbounds i8, ptr %3, i64 12
  %27 = load float, ptr %26, align 4
  %28 = getelementptr inbounds i8, ptr %3, i64 4
  %29 = load float, ptr %28, align 4
  %30 = fsub float %27, %29
  %31 = fptosi float %30 to i32
  br label %_ZN7nanogui5ArrayIiLm2EEC2Ei.exit

32:                                               ; preds = %7
  tail call void @nvgTextAlign(ptr noundef %1, i32 noundef 17)
  %33 = tail call noundef ptr @_ZNKSt7__cxx1112basic_stringIcSt11char_traitsIcESaIcEE5c_strEv(ptr noundef nonnull align 8 dereferenceable(32) %4) #10
  %34 = tail call float @nvgTextBounds(ptr noundef %1, float noundef 0.000000e+00, float noundef 0.000000e+00, ptr noundef %33, ptr noundef null, ptr noundef null)
  %35 = fadd float %34, 2.000000e+00
  %36 = fptosi float %35 to i32
  %37 = tail call noundef i32 @_ZNK7nanogui6Widget9font_sizeEv(ptr noundef nonnull align 8 dereferenceable(140) %0)
  br label %_ZN7nanogui5ArrayIiLm2EEC2Ei.exit

_ZN7nanogui5ArrayIiLm2EEC2Ei.exit:                ; preds = %2, %32, %15
  %.sroa.0.0 = phi i32 [ %25, %15 ], [ %36, %32 ], [ 0, %2 ]
  %.sroa.4.0 = phi i32 [ %31, %15 ], [ %37, %32 ], [ 0, %2 ]
  %.sroa.4.0.insert.ext = zext i32 %.sroa.4.0 to i64
  %.sroa.4.0.insert.shift = shl nuw i64 %.sroa.4.0.insert.ext, 32
  %.sroa.0.0.insert.ext = zext i32 %.sroa.0.0 to i64
  %.sroa.0.0.insert.insert = or disjoint i64 %.sroa.4.0.insert.shift, %.sroa.0.0.insert.ext
  ret i64 %.sroa.0.0.insert.insert
}